; Function Attrs: nounwind sspstrong uwtable
define dso_local { i64, i64 } @rb_time_timespec(i64 noundef %0) local_unnamed_addr #1 {
  %2 = tail call i32 @rb_typeddata_is_kind_of(i64 noundef %0, ptr noundef nonnull @time_data_type) #21
  %.not = icmp eq i32 %2, 0
  br i1 %.not, label %13, label %3

3:                                                ; preds = %1
  %4 = tail call ptr @rb_check_typeddata(i64 noundef %0, ptr noundef nonnull @time_data_type) #21
  %5 = getelementptr inbounds nuw i8, ptr %4, i64 40
  %6 = load i64, ptr %5, align 8
  %7 = and i64 %6, 61572651155456
  %.not.i = icmp eq i64 %7, 26388279066624
  br i1 %.not.i, label %8, label %get_timeval.exit

8:                                                ; preds = %3
  %9 = load i64, ptr @rb_eTypeError, align 8, !tbaa !11
  %10 = tail call i64 @rb_obj_class(i64 noundef %0) #21
  tail call void (i64, ptr, ...) @rb_raise(i64 noundef %9, ptr noundef nonnull @.str.92, i64 noundef %10) #22
  unreachable

get_timeval.exit:                                 ; preds = %3
  %11 = load i64, ptr %4, align 8, !tbaa !25
  %12 = tail call fastcc { i64, i64 } @timew2timespec(i64 noundef %11)
  br label %15

13:                                               ; preds = %1
  %14 = tail call fastcc { i64, i64 } @time_timespec(i64 noundef %0, i32 noundef 0)
  br label %15

15:                                               ; preds = %13, %get_timeval.exit
  %.pn = phi { i64, i64 } [ %12, %get_timeval.exit ], [ %14, %13 ]
  ret { i64, i64 } %.pn
}